; Function Attrs: nofree nosync nounwind memory(readwrite, inaccessiblemem: none) uwtable
define void @Llb_ManFlowSetMarkA_rec(ptr noundef captures(none) %0) local_unnamed_addr #6 {
  %2 = getelementptr inbounds nuw i8, ptr %0, i64 24
  %3 = load i64, ptr %2, align 8
  %4 = and i64 %3, 16
  %.not13 = icmp eq i64 %4, 0
  br i1 %.not13, label %.lr.ph, label %._crit_edge

.lr.ph:                                           ; preds = %1, %tailrecurse
  %5 = phi i64 [ %18, %tailrecurse ], [ %3, %1 ]
  %6 = phi ptr [ %17, %tailrecurse ], [ %2, %1 ]
  %.tr14 = phi ptr [ %16, %tailrecurse ], [ %0, %1 ]
  %7 = or disjoint i64 %5, 16
  store i64 %7, ptr %6, align 8
  %8 = and i64 %5, 7
  %.off = add nsw i64 %8, -1
  %switch = icmp ult i64 %.off, 2
  br i1 %switch, label %._crit_edge, label %tailrecurse

tailrecurse:                                      ; preds = %.lr.ph
  %9 = getelementptr i8, ptr %.tr14, i64 8
  %.val = load ptr, ptr %9, align 8, !tbaa !31
  %10 = ptrtoint ptr %.val to i64
  %11 = and i64 %10, -2
  %12 = inttoptr i64 %11 to ptr
  tail call void @Llb_ManFlowSetMarkA_rec(ptr noundef %12)
  %13 = getelementptr i8, ptr %.tr14, i64 16
  %.val8 = load ptr, ptr %13, align 8, !tbaa !32
  %14 = ptrtoint ptr %.val8 to i64
  %15 = and i64 %14, -2
  %16 = inttoptr i64 %15 to ptr
  %17 = getelementptr inbounds nuw i8, ptr %16, i64 24
  %18 = load i64, ptr %17, align 8
  %19 = and i64 %18, 16
  %.not = icmp eq i64 %19, 0
  br i1 %.not, label %.lr.ph, label %._crit_edge

._crit_edge:                                      ; preds = %tailrecurse, %.lr.ph, %1
  ret void
}